target datalayout = "e-m:e-p270:32:32-p271:32:32-p272:64:64-i64:64-i128:128-f80:128-n8:16:32:64-S128"
target triple = "x86_64-unknown-linux-gnu"

%struct.UStringSearch = type { ptr, %struct.UPattern, ptr, ptr, ptr, ptr, ptr, i8, i32, i32, i32, i8 }
%struct.UPattern = type { ptr, i32, i32, ptr, [256 x i32], i32, ptr, [256 x i64], i8, i8 }
%struct.USearch = type { ptr, i32, i8, i8, i16, ptr, ptr, i32, i32, i8, i8 }

; Function Attrs: mustprogress nounwind uwtable
define internal noundef signext i8 @_ZL9U_SUCCESS10UErrorCode(i32 noundef %code) #1 {
entry:
  %code.addr = alloca i32, align 4
  store i32 %code, ptr %code.addr, align 4
  %0 = load i32, ptr %code.addr, align 4
  %cmp = icmp sle i32 %0, 0
  %conv = zext i1 %cmp to i8
  ret i8 %conv
}

; Function Attrs: mustprogress uwtable
define void @usearch_setBreakIterator_75(ptr noundef %strsrch, ptr noundef %breakiter, ptr noundef %status) #0 {
entry:
  %strsrch.addr = alloca ptr, align 8
  %breakiter.addr = alloca ptr, align 8
  %status.addr = alloca ptr, align 8
  store ptr %strsrch, ptr %strsrch.addr, align 8
  store ptr %breakiter, ptr %breakiter.addr, align 8
  store ptr %status, ptr %status.addr, align 8
  %0 = load ptr, ptr %status.addr, align 8
  %1 = load i32, ptr %0, align 4
  %call = call noundef signext i8 @_ZL9U_SUCCESS10UErrorCode(i32 noundef %1)
  %tobool = icmp ne i8 %call, 0
  br i1 %tobool, label %land.lhs.true, label %if.end6

land.lhs.true:                                    ; preds = %entry
  %2 = load ptr, ptr %strsrch.addr, align 8
  %tobool1 = icmp ne ptr %2, null
  br i1 %tobool1, label %if.then, label %if.end6

if.then:                                          ; preds = %land.lhs.true
  %3 = load ptr, ptr %breakiter.addr, align 8
  %4 = load ptr, ptr %strsrch.addr, align 8
  %search = getelementptr inbounds %struct.UStringSearch, ptr %4, i32 0, i32 0
  %5 = load ptr, ptr %search, align 8
  %breakIter = getelementptr inbounds %struct.USearch, ptr %5, i32 0, i32 6
  store ptr %3, ptr %breakIter, align 8
  %6 = load ptr, ptr %breakiter.addr, align 8
  %tobool2 = icmp ne ptr %6, null
  br i1 %tobool2, label %if.then3, label %if.end

if.then3:                                         ; preds = %if.then
  %7 = load ptr, ptr %breakiter.addr, align 8
  %8 = load ptr, ptr %strsrch.addr, align 8
  %search4 = getelementptr inbounds %struct.UStringSearch, ptr %8, i32 0, i32 0
  %9 = load ptr, ptr %search4, align 8
  %text = getelementptr inbounds %struct.USearch, ptr %9, i32 0, i32 0
  %10 = load ptr, ptr %text, align 8
  %11 = load ptr, ptr %strsrch.addr, align 8
  %search5 = getelementptr inbounds %struct.UStringSearch, ptr %11, i32 0, i32 0
  %12 = load ptr, ptr %search5, align 8
  %textLength = getelementptr inbounds %struct.USearch, ptr %12, i32 0, i32 1
  %13 = load i32, ptr %textLength, align 8
  %14 = load ptr, ptr %status.addr, align 8
  call void @ubrk_setText_75(ptr noundef %7, ptr noundef %10, i32 noundef %13, ptr noundef %14)
  br label %if.end

if.end:                                           ; preds = %if.then3, %if.then
  br label %if.end6

if.end6:                                          ; preds = %if.end, %land.lhs.true, %entry
  ret void
}