; Function Attrs: mustprogress uwtable
define void @usearch_setBreakIterator_75(ptr noundef readonly %strsrch, ptr noundef %breakiter, ptr noundef %status) local_unnamed_addr #0 {
entry:
  %0 = load i32, ptr %status, align 4
  %cmp.i = icmp slt i32 %0, 1
  %tobool1 = icmp ne ptr %strsrch, null
  %or.cond = and i1 %tobool1, %cmp.i
  br i1 %or.cond, label %if.then, label %if.end6

if.then:                                          ; preds = %entry
  %1 = load ptr, ptr %strsrch, align 8
  %breakIter = getelementptr inbounds i8, ptr %1, i64 24
  store ptr %breakiter, ptr %breakIter, align 8
  %tobool2.not = icmp eq ptr %breakiter, null
  br i1 %tobool2.not, label %if.end6, label %if.then3

if.then3:                                         ; preds = %if.then
  %2 = load ptr, ptr %strsrch, align 8
  %3 = load ptr, ptr %2, align 8
  %textLength = getelementptr inbounds i8, ptr %2, i64 8
  %4 = load i32, ptr %textLength, align 8
  tail call void @ubrk_setText_75(ptr noundef nonnull %breakiter, ptr noundef %3, i32 noundef %4, ptr noundef nonnull %status)
  br label %if.end6

if.end6:                                          ; preds = %if.then, %if.then3, %entry
  ret void
}